; Function Attrs: mustprogress uwtable
define hidden void @_ZN19OpenColorIO_v2_4dev24getFileBufferByExtensionEPvR13mz_zip_file_sNSt7__cxx1112basic_stringIcSt11char_traitsIcESaIcEEE(ptr noalias sret(%"class.std::vector.17") align 8 %agg.result, ptr noundef %reader, ptr nocapture noundef nonnull readonly align 8 dereferenceable(128) %info, ptr noundef %extension) #0 personality ptr @__gxx_personality_v0 {
entry:
  %root = alloca %"class.std::__cxx11::basic_string", align 8
  %ext = alloca %"class.std::__cxx11::basic_string", align 8
  %ref.tmp = alloca %"class.std::__cxx11::basic_string", align 8
  %ref.tmp1 = alloca %"class.std::allocator", align 1
  call void @_ZNSt7__cxx1112basic_stringIcSt11char_traitsIcESaIcEEC1Ev(ptr noundef nonnull align 8 dereferenceable(32) %root) #15
  call void @_ZNSt7__cxx1112basic_stringIcSt11char_traitsIcESaIcEEC1Ev(ptr noundef nonnull align 8 dereferenceable(32) %ext) #15
  call void @llvm.memset.p0.i64(ptr noundef nonnull align 8 dereferenceable(24) %agg.result, i8 0, i64 24, i1 false)
  %filename = getelementptr inbounds i8, ptr %info, i64 88
  %0 = load ptr, ptr %filename, align 8
  call void @_ZNSaIcEC1Ev(ptr noundef nonnull align 1 dereferenceable(1) %ref.tmp1) #15
  invoke void @_ZNSt7__cxx1112basic_stringIcSt11char_traitsIcESaIcEEC1EPKcRKS3_(ptr noundef nonnull align 8 dereferenceable(32) %ref.tmp, ptr noundef %0, ptr noundef nonnull align 1 dereferenceable(1) %ref.tmp1)
          to label %invoke.cont unwind label %lpad

invoke.cont:                                      ; preds = %entry
  invoke void @_ZN8pystring2os4path8splitextERNSt7__cxx1112basic_stringIcSt11char_traitsIcESaIcEEES8_RKS7_(ptr noundef nonnull align 8 dereferenceable(32) %root, ptr noundef nonnull align 8 dereferenceable(32) %ext, ptr noundef nonnull align 8 dereferenceable(32) %ref.tmp)
          to label %invoke.cont3 unwind label %lpad2

invoke.cont3:                                     ; preds = %invoke.cont
  call void @_ZNSt7__cxx1112basic_stringIcSt11char_traitsIcESaIcEED1Ev(ptr noundef nonnull align 8 dereferenceable(32) %ref.tmp) #15
  call void @_ZNSaIcED1Ev(ptr noundef nonnull align 1 dereferenceable(1) %ref.tmp1) #15
  %call = call noundef ptr @_ZNKSt7__cxx1112basic_stringIcSt11char_traitsIcESaIcEE5c_strEv(ptr noundef nonnull align 8 dereferenceable(32) %extension) #15
  %call4 = call noundef ptr @_ZNKSt7__cxx1112basic_stringIcSt11char_traitsIcESaIcEE5c_strEv(ptr noundef nonnull align 8 dereferenceable(32) %ext) #15
  %call7 = invoke noundef i32 @_ZN19OpenColorIO_v2_4dev8Platform10StrcasecmpEPKcS2_(ptr noundef %call, ptr noundef %call4)
          to label %invoke.cont6 unwind label %ehcleanup14

invoke.cont6:                                     ; preds = %invoke.cont3
  %cmp = icmp eq i32 %call7, 0
  br i1 %cmp, label %if.then, label %nrvo.skipdtor

if.then:                                          ; preds = %invoke.cont6
  %call9 = invoke i32 @mz_zip_reader_entry_save_buffer_length(ptr noundef %reader)
          to label %invoke.cont8 unwind label %ehcleanup14

invoke.cont8:                                     ; preds = %if.then
  %conv = sext i32 %call9 to i64
  invoke void @_ZNSt6vectorIhSaIhEE6resizeEm(ptr noundef nonnull align 8 dereferenceable(24) %agg.result, i64 noundef %conv)
          to label %invoke.cont10 unwind label %ehcleanup14

invoke.cont10:                                    ; preds = %invoke.cont8
  %1 = load ptr, ptr %agg.result, align 8
  %call13 = invoke i32 @mz_zip_reader_entry_save_buffer(ptr noundef %reader, ptr noundef nonnull %1, i32 noundef %call9)
          to label %nrvo.skipdtor unwind label %ehcleanup14

lpad:                                             ; preds = %entry
  %2 = landingpad { ptr, i32 }
          cleanup
  br label %ehcleanup14.thread

lpad2:                                            ; preds = %invoke.cont
  %3 = landingpad { ptr, i32 }
          cleanup
  call void @_ZNSt7__cxx1112basic_stringIcSt11char_traitsIcESaIcEED1Ev(ptr noundef nonnull align 8 dereferenceable(32) %ref.tmp) #15
  br label %ehcleanup14.thread

ehcleanup14.thread:                               ; preds = %lpad, %lpad2
  %.pn = phi { ptr, i32 } [ %3, %lpad2 ], [ %2, %lpad ]
  call void @_ZNSaIcED1Ev(ptr noundef nonnull align 1 dereferenceable(1) %ref.tmp1) #15
  br label %_ZNSt6vectorIhSaIhEED2Ev.exit

nrvo.skipdtor:                                    ; preds = %invoke.cont6, %invoke.cont10
  call void @_ZNSt7__cxx1112basic_stringIcSt11char_traitsIcESaIcEED1Ev(ptr noundef nonnull align 8 dereferenceable(32) %ext) #15
  call void @_ZNSt7__cxx1112basic_stringIcSt11char_traitsIcESaIcEED1Ev(ptr noundef nonnull align 8 dereferenceable(32) %root) #15
  ret void

ehcleanup14:                                      ; preds = %invoke.cont3, %if.then, %invoke.cont8, %invoke.cont10
  %4 = landingpad { ptr, i32 }
          cleanup
  %.pre = load ptr, ptr %agg.result, align 8
  %tobool.not.i.i.i = icmp eq ptr %.pre, null
  br i1 %tobool.not.i.i.i, label %_ZNSt6vectorIhSaIhEED2Ev.exit, label %if.then.i.i.i

if.then.i.i.i:                                    ; preds = %ehcleanup14
  call void @_ZdlPv(ptr noundef nonnull %.pre) #17
  br label %_ZNSt6vectorIhSaIhEED2Ev.exit

_ZNSt6vectorIhSaIhEED2Ev.exit:                    ; preds = %ehcleanup14.thread, %ehcleanup14, %if.then.i.i.i
  %.pn48 = phi { ptr, i32 } [ %.pn, %ehcleanup14.thread ], [ %4, %ehcleanup14 ], [ %4, %if.then.i.i.i ]
  call void @_ZNSt7__cxx1112basic_stringIcSt11char_traitsIcESaIcEED1Ev(ptr noundef nonnull align 8 dereferenceable(32) %ext) #15
  call void @_ZNSt7__cxx1112basic_stringIcSt11char_traitsIcESaIcEED1Ev(ptr noundef nonnull align 8 dereferenceable(32) %root) #15
  resume { ptr, i32 } %.pn48
}